; Function Attrs: null_pointer_is_valid sspstrong uwtable
define internal ptr @ipv6_value(ptr noundef %0) #0 {
  %2 = getelementptr inbounds nuw i8, ptr %0, i64 408
  %3 = load ptr, ptr %2, align 8
  %4 = load i32, ptr @proto_ipv6, align 4
  %5 = getelementptr inbounds nuw i8, ptr %0, i64 376
  %6 = load i8, ptr %5, align 8
  %7 = zext i8 %6 to i32
  %8 = shl nuw nsw i32 %7, 8
  %9 = or disjoint i32 %8, 1
  %10 = tail call ptr @p_get_proto_data(ptr noundef %3, ptr noundef %0, i32 noundef %4, i32 noundef %9)
  %11 = icmp eq ptr %10, null
  br i1 %11, label %16, label %12

12:                                               ; preds = %1
  %13 = load i8, ptr %10, align 1
  %14 = zext i8 %13 to i64
  %15 = inttoptr i64 %14 to ptr
  br label %16

16:                                               ; preds = %1, %12
  %.0 = phi ptr [ %15, %12 ], [ inttoptr (i64 255 to ptr), %1 ]
  ret ptr %.0
}